; ModuleID = '63/1388.c'
source_filename = "63/1388.c"
target datalayout = "e-m:e-p270:32:32-p271:32:32-p272:64:64-i64:64-f80:128-n8:16:32:64-S128"
target triple = "x86_64-pc-linux-gnu"

@.str = private unnamed_addr constant [6 x i8] c"%d %d\00", align 1
@main.x = internal global [102 x [102 x i32]] zeroinitializer, align 16
@main.y = internal global [102 x [102 x i32]] zeroinitializer, align 16
@main.z = internal global [102 x [102 x i32]] zeroinitializer, align 16
@.str.1 = private unnamed_addr constant [3 x i8] c"%d\00", align 1
@.str.2 = private unnamed_addr constant [2 x i8] c" \00", align 1
@.str.3 = private unnamed_addr constant [2 x i8] c"\0A\00", align 1

; Function Attrs: noinline nounwind uwtable
define dso_local i32 @main() #0 {
  %1 = alloca i32, align 4
  %2 = alloca i32, align 4
  %3 = alloca i32, align 4
  %4 = alloca i32, align 4
  %5 = alloca i32, align 4
  %6 = alloca i32, align 4
  %7 = alloca i32, align 4
  %8 = alloca i32, align 4
  %9 = alloca i32, align 4
  %10 = alloca i32, align 4
  store i32 0, i32* %1, align 4
  store i32 0, i32* %9, align 4
  store i32 0, i32* %10, align 4
  %11 = call i32 (i8*, ...) @__isoc99_scanf(i8* getelementptr inbounds ([6 x i8], [6 x i8]* @.str, i64 0, i64 0), i32* %2, i32* %3)
  store i32 1, i32* %6, align 4
  br label %12

12:                                               ; preds = %33, %0
  %13 = load i32, i32* %6, align 4
  %14 = load i32, i32* %2, align 4
  %15 = icmp sle i32 %13, %14
  br i1 %15, label %16, label %36

16:                                               ; preds = %12
  store i32 1, i32* %7, align 4
  br label %17

17:                                               ; preds = %29, %16
  %18 = load i32, i32* %7, align 4
  %19 = load i32, i32* %3, align 4
  %20 = icmp sle i32 %18, %19
  br i1 %20, label %21, label %32

21:                                               ; preds = %17
  %22 = load i32, i32* %6, align 4
  %23 = sext i32 %22 to i64
  %24 = getelementptr inbounds [102 x [102 x i32]], [102 x [102 x i32]]* @main.x, i64 0, i64 %23
  %25 = load i32, i32* %7, align 4
  %26 = sext i32 %25 to i64
  %27 = getelementptr inbounds [102 x i32], [102 x i32]* %24, i64 0, i64 %26
  %28 = call i32 (i8*, ...) @__isoc99_scanf(i8* getelementptr inbounds ([3 x i8], [3 x i8]* @.str.1, i64 0, i64 0), i32* %27)
  br label %29

29:                                               ; preds = %21
  %30 = load i32, i32* %7, align 4
  %31 = add nsw i32 %30, 1
  store i32 %31, i32* %7, align 4
  br label %17

32:                                               ; preds = %17
  br label %33

33:                                               ; preds = %32
  %34 = load i32, i32* %6, align 4
  %35 = add nsw i32 %34, 1
  store i32 %35, i32* %6, align 4
  br label %12

36:                                               ; preds = %12
  %37 = call i32 (i8*, ...) @__isoc99_scanf(i8* getelementptr inbounds ([6 x i8], [6 x i8]* @.str, i64 0, i64 0), i32* %4, i32* %5)
  store i32 1, i32* %6, align 4
  br label %38

38:                                               ; preds = %59, %36
  %39 = load i32, i32* %6, align 4
  %40 = load i32, i32* %4, align 4
  %41 = icmp sle i32 %39, %40
  br i1 %41, label %42, label %62

42:                                               ; preds = %38
  store i32 1, i32* %7, align 4
  br label %43

43:                                               ; preds = %55, %42
  %44 = load i32, i32* %7, align 4
  %45 = load i32, i32* %5, align 4
  %46 = icmp sle i32 %44, %45
  br i1 %46, label %47, label %58

47:                                               ; preds = %43
  %48 = load i32, i32* %6, align 4
  %49 = sext i32 %48 to i64
  %50 = getelementptr inbounds [102 x [102 x i32]], [102 x [102 x i32]]* @main.y, i64 0, i64 %49
  %51 = load i32, i32* %7, align 4
  %52 = sext i32 %51 to i64
  %53 = getelementptr inbounds [102 x i32], [102 x i32]* %50, i64 0, i64 %52
  %54 = call i32 (i8*, ...) @__isoc99_scanf(i8* getelementptr inbounds ([3 x i8], [3 x i8]* @.str.1, i64 0, i64 0), i32* %53)
  br label %55

55:                                               ; preds = %47
  %56 = load i32, i32* %7, align 4
  %57 = add nsw i32 %56, 1
  store i32 %57, i32* %7, align 4
  br label %43

58:                                               ; preds = %43
  br label %59

59:                                               ; preds = %58
  %60 = load i32, i32* %6, align 4
  %61 = add nsw i32 %60, 1
  store i32 %61, i32* %6, align 4
  br label %38

62:                                               ; preds = %38
  store i32 1, i32* %6, align 4
  br label %63

63:                                               ; preds = %109, %62
  %64 = load i32, i32* %6, align 4
  %65 = load i32, i32* %2, align 4
  %66 = icmp sle i32 %64, %65
  br i1 %66, label %67, label %112

67:                                               ; preds = %63
  store i32 1, i32* %7, align 4
  br label %68

68:                                               ; preds = %105, %67
  %69 = load i32, i32* %7, align 4
  %70 = load i32, i32* %5, align 4
  %71 = icmp sle i32 %69, %70
  br i1 %71, label %72, label %108

72:                                               ; preds = %68
  store i32 1, i32* %8, align 4
  br label %73

73:                                               ; preds = %101, %72
  %74 = load i32, i32* %8, align 4
  %75 = load i32, i32* %3, align 4
  %76 = icmp sle i32 %74, %75
  br i1 %76, label %77, label %104

77:                                               ; preds = %73
  %78 = load i32, i32* %6, align 4
  %79 = sext i32 %78 to i64
  %80 = getelementptr inbounds [102 x [102 x i32]], [102 x [102 x i32]]* @main.x, i64 0, i64 %79
  %81 = load i32, i32* %8, align 4
  %82 = sext i32 %81 to i64
  %83 = getelementptr inbounds [102 x i32], [102 x i32]* %80, i64 0, i64 %82
  %84 = load i32, i32* %83, align 4
  %85 = load i32, i32* %8, align 4
  %86 = sext i32 %85 to i64
  %87 = getelementptr inbounds [102 x [102 x i32]], [102 x [102 x i32]]* @main.y, i64 0, i64 %86
  %88 = load i32, i32* %7, align 4
  %89 = sext i32 %88 to i64
  %90 = getelementptr inbounds [102 x i32], [102 x i32]* %87, i64 0, i64 %89
  %91 = load i32, i32* %90, align 4
  %92 = mul nsw i32 %84, %91
  %93 = load i32, i32* %6, align 4
  %94 = sext i32 %93 to i64
  %95 = getelementptr inbounds [102 x [102 x i32]], [102 x [102 x i32]]* @main.z, i64 0, i64 %94
  %96 = load i32, i32* %7, align 4
  %97 = sext i32 %96 to i64
  %98 = getelementptr inbounds [102 x i32], [102 x i32]* %95, i64 0, i64 %97
  %99 = load i32, i32* %98, align 4
  %100 = add nsw i32 %99, %92
  store i32 %100, i32* %98, align 4
  br label %101

101:                                              ; preds = %77
  %102 = load i32, i32* %8, align 4
  %103 = add nsw i32 %102, 1
  store i32 %103, i32* %8, align 4
  br label %73

104:                                              ; preds = %73
  br label %105

105:                                              ; preds = %104
  %106 = load i32, i32* %7, align 4
  %107 = add nsw i32 %106, 1
  store i32 %107, i32* %7, align 4
  br label %68

108:                                              ; preds = %68
  br label %109

109:                                              ; preds = %108
  %110 = load i32, i32* %6, align 4
  %111 = add nsw i32 %110, 1
  store i32 %111, i32* %6, align 4
  br label %63

112:                                              ; preds = %63
  store i32 1, i32* %6, align 4
  br label %113

113:                                              ; preds = %143, %112
  %114 = load i32, i32* %6, align 4
  %115 = load i32, i32* %2, align 4
  %116 = icmp sle i32 %114, %115
  br i1 %116, label %117, label %146

117:                                              ; preds = %113
  store i32 1, i32* %7, align 4
  br label %118

118:                                              ; preds = %138, %117
  %119 = load i32, i32* %7, align 4
  %120 = load i32, i32* %5, align 4
  %121 = icmp sle i32 %119, %120
  br i1 %121, label %122, label %141

122:                                              ; preds = %118
  %123 = load i32, i32* %9, align 4
  %124 = icmp ne i32 %123, 0
  br i1 %124, label %125, label %127

125:                                              ; preds = %122
  %126 = call i32 (i8*, ...) @printf(i8* getelementptr inbounds ([2 x i8], [2 x i8]* @.str.2, i64 0, i64 0))
  br label %127

127:                                              ; preds = %125, %122
  %128 = load i32, i32* %6, align 4
  %129 = sext i32 %128 to i64
  %130 = getelementptr inbounds [102 x [102 x i32]], [102 x [102 x i32]]* @main.z, i64 0, i64 %129
  %131 = load i32, i32* %7, align 4
  %132 = sext i32 %131 to i64
  %133 = getelementptr inbounds [102 x i32], [102 x i32]* %130, i64 0, i64 %132
  %134 = load i32, i32* %133, align 4
  %135 = call i32 (i8*, ...) @printf(i8* getelementptr inbounds ([3 x i8], [3 x i8]* @.str.1, i64 0, i64 0), i32 %134)
  %136 = load i32, i32* %9, align 4
  %137 = add nsw i32 %136, 1
  store i32 %137, i32* %9, align 4
  br label %138

138:                                              ; preds = %127
  %139 = load i32, i32* %7, align 4
  %140 = add nsw i32 %139, 1
  store i32 %140, i32* %7, align 4
  br label %118

141:                                              ; preds = %118
  store i32 0, i32* %9, align 4
  %142 = call i32 (i8*, ...) @printf(i8* getelementptr inbounds ([2 x i8], [2 x i8]* @.str.3, i64 0, i64 0))
  br label %143

143:                                              ; preds = %141
  %144 = load i32, i32* %6, align 4
  %145 = add nsw i32 %144, 1
  store i32 %145, i32* %6, align 4
  br label %113

146:                                              ; preds = %113
  %147 = load i32, i32* %1, align 4
  ret i32 %147
}

declare dso_local i32 @__isoc99_scanf(i8*, ...) #1

declare dso_local i32 @printf(i8*, ...) #1


!llvm.module.flags = !{!0}
!llvm.ident = !{!1}

!0 = !{i32 1, !"wchar_size", i32 4}
!1 = !{!"clang version 10.0.0-4ubuntu1 "}
